; Function Attrs: mustprogress uwtable
define noundef zeroext i1 @_ZN9QuickOpen8ReadNextEv(ptr noundef nonnull align 8 dereferenceable(2673) %0) local_unnamed_addr #0 align 2 personality ptr @__gxx_personality_v0 {
  %2 = alloca %class.RawRead, align 8
  call void @_ZN7RawReadC1EP4File(ptr noundef nonnull align 8 dereferenceable(64) %2, ptr noundef null)
  %3 = invoke noundef zeroext i1 @_ZN9QuickOpen7ReadRawER7RawRead(ptr noundef nonnull align 8 dereferenceable(2673) %0, ptr noundef nonnull align 8 dereferenceable(64) %2)
          to label %4 unwind label %5

4:                                                ; preds = %1
  br i1 %3, label %9, label %45

5:                                                ; preds = %37, %.noexc, %27, %_ZN5ArrayIhE5AllocEm.exit, %13, %11, %9, %1
  %6 = landingpad { ptr, i32 }
          cleanup
  %7 = load ptr, ptr %2, align 8
  %.not.i.i = icmp eq ptr %7, null
  br i1 %.not.i.i, label %_ZN7RawReadD2Ev.exit, label %8

8:                                                ; preds = %5
  call void @free(ptr noundef nonnull %7) #15
  br label %_ZN7RawReadD2Ev.exit

_ZN7RawReadD2Ev.exit:                             ; preds = %5, %8
  resume { ptr, i32 } %6

9:                                                ; preds = %4
  %10 = invoke noundef i64 @_ZN7RawRead4GetVEv(ptr noundef nonnull align 8 dereferenceable(64) %2)
          to label %11 unwind label %5

11:                                               ; preds = %9
  %12 = invoke noundef i64 @_ZN7RawRead4GetVEv(ptr noundef nonnull align 8 dereferenceable(64) %2)
          to label %13 unwind label %5

13:                                               ; preds = %11
  %14 = invoke noundef i64 @_ZN7RawRead4GetVEv(ptr noundef nonnull align 8 dereferenceable(64) %2)
          to label %15 unwind label %5

15:                                               ; preds = %13
  %16 = icmp ugt i64 %14, 2097152
  br i1 %16, label %45, label %17

17:                                               ; preds = %15
  %18 = getelementptr inbounds i8, ptr %0, i64 2624
  %19 = getelementptr inbounds i8, ptr %0, i64 2640
  %20 = load i64, ptr %19, align 8
  %21 = icmp ult i64 %20, %14
  %22 = getelementptr inbounds i8, ptr %0, i64 2632
  store i64 %14, ptr %22, align 8
  br i1 %21, label %23, label %._ZN5ArrayIhE5AllocEm.exit_crit_edge

._ZN5ArrayIhE5AllocEm.exit_crit_edge:             ; preds = %17
  %.pre = load ptr, ptr %18, align 8
  br label %_ZN5ArrayIhE5AllocEm.exit

23:                                               ; preds = %17
  %24 = getelementptr inbounds i8, ptr %0, i64 2648
  %25 = load i64, ptr %24, align 8
  %.not.i.i8 = icmp ne i64 %25, 0
  %26 = icmp ult i64 %25, %14
  %or.cond.i.i = and i1 %.not.i.i8, %26
  br i1 %or.cond.i.i, label %27, label %28

27:                                               ; preds = %23
  invoke void (ptr, ptr, ...) @_ZN12ErrorHandler13GeneralErrMsgEPKwz(ptr noundef nonnull align 4 dereferenceable(14) @ErrHandler, ptr noundef nonnull @.str.1, i64 noundef %25)
          to label %.noexc unwind label %5

.noexc:                                           ; preds = %27
  invoke void @_ZN12ErrorHandler11MemoryErrorEv(ptr noundef nonnull align 4 dereferenceable(14) @ErrHandler)
          to label %.noexc9 unwind label %5

.noexc9:                                          ; preds = %.noexc
  %.pre.i.i = load i64, ptr %19, align 8
  %.pre10.i.i = load i64, ptr %22, align 8
  br label %28

28:                                               ; preds = %.noexc9, %23
  %29 = phi i64 [ %.pre10.i.i, %.noexc9 ], [ %14, %23 ]
  %30 = phi i64 [ %.pre.i.i, %.noexc9 ], [ %20, %23 ]
  %31 = lshr i64 %30, 2
  %32 = add i64 %30, 32
  %33 = add i64 %32, %31
  %..i.i = call i64 @llvm.umax.i64(i64 %29, i64 %33)
  %34 = load ptr, ptr %18, align 8
  %35 = call ptr @realloc(ptr noundef %34, i64 noundef %..i.i) #19
  %36 = icmp eq ptr %35, null
  br i1 %36, label %37, label %_ZN5ArrayIhE3AddEm.exit.i

37:                                               ; preds = %28
  invoke void @_ZN12ErrorHandler11MemoryErrorEv(ptr noundef nonnull align 4 dereferenceable(14) @ErrHandler)
          to label %_ZN5ArrayIhE3AddEm.exit.i unwind label %5

_ZN5ArrayIhE3AddEm.exit.i:                        ; preds = %37, %28
  store ptr %35, ptr %18, align 8
  store i64 %..i.i, ptr %19, align 8
  br label %_ZN5ArrayIhE5AllocEm.exit

_ZN5ArrayIhE5AllocEm.exit:                        ; preds = %._ZN5ArrayIhE5AllocEm.exit_crit_edge, %_ZN5ArrayIhE3AddEm.exit.i
  %38 = phi ptr [ %.pre, %._ZN5ArrayIhE5AllocEm.exit_crit_edge ], [ %35, %_ZN5ArrayIhE3AddEm.exit.i ]
  %39 = invoke noundef i64 @_ZN7RawRead4GetBEPvm(ptr noundef nonnull align 8 dereferenceable(64) %2, ptr noundef nonnull %38, i64 noundef %14)
          to label %40 unwind label %5

40:                                               ; preds = %_ZN5ArrayIhE5AllocEm.exit
  %41 = getelementptr inbounds i8, ptr %0, i64 2576
  %42 = load i64, ptr %41, align 8
  %43 = sub i64 %42, %12
  %44 = getelementptr inbounds i8, ptr %0, i64 2656
  store i64 %43, ptr %44, align 8
  br label %45

45:                                               ; preds = %15, %4, %40
  %.0 = phi i1 [ true, %40 ], [ false, %4 ], [ false, %15 ]
  %46 = load ptr, ptr %2, align 8
  %.not.i.i11 = icmp eq ptr %46, null
  br i1 %.not.i.i11, label %_ZN7RawReadD2Ev.exit12, label %47

47:                                               ; preds = %45
  call void @free(ptr noundef nonnull %46) #15
  br label %_ZN7RawReadD2Ev.exit12

_ZN7RawReadD2Ev.exit12:                           ; preds = %45, %47
  ret i1 %.0
}